; Function Attrs: mustprogress nounwind uwtable
define hidden noundef ptr @_ZNK13TypeNarrowOop19cleanup_speculativeEv(ptr nocapture noundef nonnull readonly align 8 dereferenceable(32) %0) unnamed_addr #0 align 2 {
  %2 = getelementptr inbounds i8, ptr %0, i64 24
  %3 = load ptr, ptr %2, align 8
  %4 = load ptr, ptr %3, align 8
  %5 = getelementptr inbounds i8, ptr %4, i64 136
  %6 = load ptr, ptr %5, align 8
  %7 = tail call noundef ptr %6(ptr noundef nonnull align 8 dereferenceable(44) %3) #17
  %8 = tail call align 8 ptr @llvm.threadlocal.address.p0(ptr align 8 @_ZN6Thread12_thr_currentE)
  %9 = load ptr, ptr %8, align 8
  %10 = getelementptr inbounds i8, ptr %9, i64 1808
  %11 = load ptr, ptr %10, align 8
  %12 = getelementptr inbounds i8, ptr %11, i64 128
  %13 = load ptr, ptr %12, align 8
  %14 = getelementptr inbounds i8, ptr %13, i64 888
  store i64 32, ptr %14, align 8
  %15 = getelementptr inbounds i8, ptr %13, i64 848
  %16 = load ptr, ptr %15, align 8
  %17 = getelementptr inbounds i8, ptr %16, i64 40
  %18 = load ptr, ptr %17, align 8
  %19 = getelementptr inbounds i8, ptr %16, i64 32
  %20 = load ptr, ptr %19, align 8
  %21 = ptrtoint ptr %18 to i64
  %22 = ptrtoint ptr %20 to i64
  %23 = sub i64 %21, %22
  %.not.i.i.i.i = icmp ult i64 %23, 32
  br i1 %.not.i.i.i.i, label %26, label %24

24:                                               ; preds = %1
  %25 = getelementptr inbounds i8, ptr %20, i64 32
  store ptr %25, ptr %19, align 8
  br label %_ZN13TypeNarrowOop4makeEPK7TypePtr.exit

26:                                               ; preds = %1
  %27 = tail call noundef ptr @_ZN5Arena4growEmN17AllocFailStrategy13AllocFailEnumE(ptr noundef nonnull align 8 dereferenceable(48) %16, i64 noundef 32, i32 noundef 0) #17
  br label %_ZN13TypeNarrowOop4makeEPK7TypePtr.exit

_ZN13TypeNarrowOop4makeEPK7TypePtr.exit:          ; preds = %24, %26
  %.0.i.i.i.i = phi ptr [ %20, %24 ], [ %27, %26 ]
  %28 = icmp ne ptr %.0.i.i.i.i, null
  tail call void @llvm.assume(i1 %28)
  %29 = getelementptr inbounds i8, ptr %.0.i.i.i.i, i64 8
  store ptr null, ptr %29, align 8
  %30 = getelementptr inbounds i8, ptr %.0.i.i.i.i, i64 16
  store i32 6, ptr %30, align 8
  %31 = getelementptr inbounds i8, ptr %.0.i.i.i.i, i64 24
  store ptr %7, ptr %31, align 8
  store ptr getelementptr inbounds inrange(-16, 216) (i8, ptr @_ZTV13TypeNarrowOop, i64 16), ptr %.0.i.i.i.i, align 8
  %32 = tail call noundef ptr @_ZN4Type8hashconsEv(ptr noundef nonnull align 8 dereferenceable(20) %.0.i.i.i.i)
  ret ptr %32
}